target datalayout = "e-m:e-p270:32:32-p271:32:32-p272:64:64-i64:64-i128:128-f80:128-n8:16:32:64-S128"
target triple = "x86_64-pc-linux-gnu"

%struct.job_info = type { ptr, i64, ptr, ptr, i32, ptr, i32, i32, i32, ptr, i32, ptr, i16, ptr, i64, i16, ptr, ptr, ptr, ptr, ptr, ptr, ptr, ptr, i16, i16, i16, double, i16, i32, i32, i32, ptr, ptr, i64, i32, ptr, i32, i64, i64, ptr, ptr, i32, ptr, ptr, ptr, ptr, i64, ptr, i64, ptr, i32, ptr, ptr, i32, i32, ptr, i32, i32, ptr, ptr, i32, i64, ptr, i16, ptr, i32, i32, ptr, ptr, ptr, ptr, ptr, i32, ptr, i16, i16, i16, i16, i16, i32, i32, i32, i16, ptr, ptr, i64, i16, i32, i64, i64, i64, i32, ptr, ptr, i32, ptr, i8, ptr, ptr, i32, i16, i64, i16, ptr, ptr, ptr, ptr, i16, i32, i16, i16, i64, i16, ptr, i32, ptr, ptr, ptr, i16, i64, i64, ptr, i32, i32, i16, ptr, ptr, ptr, ptr, ptr, ptr, ptr, ptr, i32, ptr, i32, ptr, ptr }

@.str.14 = private unnamed_addr constant [6 x i8] c"%u_%u\00", align 1
@.str.15 = private unnamed_addr constant [3 x i8] c"%u\00", align 1
@.str.46 = private unnamed_addr constant [46 x i8] c"Cancel job_id=%s name=%s partition=%s [y/n]? \00", align 1
@.str.47 = private unnamed_addr constant [50 x i8] c"Cancel step_id=%s.%u name=%s partition=%s [y/n]? \00", align 1
@stdin = external global ptr, align 8
@.str.48 = private unnamed_addr constant [8 x i8] c"%u_[%s]\00", align 1

; Function Attrs: nounwind uwtable
define internal ptr @_build_jobid_str(ptr noundef %0, i32 noundef %1) #0 {
  %3 = alloca ptr, align 8
  %4 = alloca i32, align 4
  %5 = alloca ptr, align 8
  store ptr %0, ptr %3, align 8
  store i32 %1, ptr %4, align 4
  call void @llvm.lifetime.start.p0(i64 8, ptr %5) #9
  store ptr null, ptr %5, align 8
  %6 = load i32, ptr %4, align 4
  %7 = icmp ne i32 %6, -2
  br i1 %7, label %8, label %16

8:                                                ; preds = %2
  %9 = load i32, ptr %4, align 4
  %10 = icmp ne i32 %9, -1
  br i1 %10, label %11, label %16

11:                                               ; preds = %8
  %12 = load ptr, ptr %3, align 8
  %13 = getelementptr inbounds nuw %struct.job_info, ptr %12, i32 0, i32 6
  %14 = load i32, ptr %13, align 8
  %15 = load i32, ptr %4, align 4
  call void (ptr, ptr, ...) @_xstrfmtcat(ptr noundef %5, ptr noundef @.str.14, i32 noundef %14, i32 noundef %15)
  br label %46

16:                                               ; preds = %8, %2
  %17 = load ptr, ptr %3, align 8
  %18 = getelementptr inbounds nuw %struct.job_info, ptr %17, i32 0, i32 9
  %19 = load ptr, ptr %18, align 8
  %20 = icmp ne ptr %19, null
  br i1 %20, label %21, label %28

21:                                               ; preds = %16
  %22 = load ptr, ptr %3, align 8
  %23 = getelementptr inbounds nuw %struct.job_info, ptr %22, i32 0, i32 6
  %24 = load i32, ptr %23, align 8
  %25 = load ptr, ptr %3, align 8
  %26 = getelementptr inbounds nuw %struct.job_info, ptr %25, i32 0, i32 9
  %27 = load ptr, ptr %26, align 8
  call void (ptr, ptr, ...) @_xstrfmtcat(ptr noundef %5, ptr noundef @.str.48, i32 noundef %24, ptr noundef %27)
  br label %45

28:                                               ; preds = %16
  %29 = load ptr, ptr %3, align 8
  %30 = getelementptr inbounds nuw %struct.job_info, ptr %29, i32 0, i32 7
  %31 = load i32, ptr %30, align 4
  %32 = icmp ne i32 %31, -2
  br i1 %32, label %33, label %40

33:                                               ; preds = %28
  %34 = load ptr, ptr %3, align 8
  %35 = getelementptr inbounds nuw %struct.job_info, ptr %34, i32 0, i32 6
  %36 = load i32, ptr %35, align 8
  %37 = load ptr, ptr %3, align 8
  %38 = getelementptr inbounds nuw %struct.job_info, ptr %37, i32 0, i32 7
  %39 = load i32, ptr %38, align 4
  call void (ptr, ptr, ...) @_xstrfmtcat(ptr noundef %5, ptr noundef @.str.14, i32 noundef %36, i32 noundef %39)
  br label %44

40:                                               ; preds = %28
  %41 = load ptr, ptr %3, align 8
  %42 = getelementptr inbounds nuw %struct.job_info, ptr %41, i32 0, i32 58
  %43 = load i32, ptr %42, align 4
  call void (ptr, ptr, ...) @_xstrfmtcat(ptr noundef %5, ptr noundef @.str.15, i32 noundef %43)
  br label %44

44:                                               ; preds = %40, %33
  br label %45

45:                                               ; preds = %44, %21
  br label %46

46:                                               ; preds = %45, %11
  %47 = load ptr, ptr %5, align 8
  call void @llvm.lifetime.end.p0(i64 8, ptr %5) #9
  ret ptr %47
}

; Function Attrs: nounwind uwtable
define internal i32 @_confirmation(ptr noundef %0, i32 noundef %1, i32 noundef %2) #0 {
  %4 = alloca i32, align 4
  %5 = alloca ptr, align 8
  %6 = alloca i32, align 4
  %7 = alloca i32, align 4
  %8 = alloca ptr, align 8
  %9 = alloca [128 x i8], align 16
  %10 = alloca i32, align 4
  store ptr %0, ptr %5, align 8
  store i32 %1, ptr %6, align 4
  store i32 %2, ptr %7, align 4
  call void @llvm.lifetime.start.p0(i64 8, ptr %8) #9
  call void @llvm.lifetime.start.p0(i64 128, ptr %9) #9
  br label %11

11:                                               ; preds = %65, %42, %3
  br label %12

12:                                               ; preds = %11
  %13 = load ptr, ptr %5, align 8
  %14 = load i32, ptr %7, align 4
  %15 = call ptr @_build_jobid_str(ptr noundef %13, i32 noundef %14)
  store ptr %15, ptr %8, align 8
  %16 = load i32, ptr %6, align 4
  %17 = icmp eq i32 %16, -5
  br i1 %17, label %18, label %27

18:                                               ; preds = %12
  %19 = load ptr, ptr %8, align 8
  %20 = load ptr, ptr %5, align 8
  %21 = getelementptr inbounds nuw %struct.job_info, ptr %20, i32 0, i32 70
  %22 = load ptr, ptr %21, align 8
  %23 = load ptr, ptr %5, align 8
  %24 = getelementptr inbounds nuw %struct.job_info, ptr %23, i32 0, i32 84
  %25 = load ptr, ptr %24, align 8
  %26 = call i32 (ptr, ...) @printf(ptr noundef @.str.46, ptr noundef %19, ptr noundef %22, ptr noundef %25)
  br label %37

27:                                               ; preds = %12
  %28 = load ptr, ptr %8, align 8
  %29 = load i32, ptr %6, align 4
  %30 = load ptr, ptr %5, align 8
  %31 = getelementptr inbounds nuw %struct.job_info, ptr %30, i32 0, i32 70
  %32 = load ptr, ptr %31, align 8
  %33 = load ptr, ptr %5, align 8
  %34 = getelementptr inbounds nuw %struct.job_info, ptr %33, i32 0, i32 84
  %35 = load ptr, ptr %34, align 8
  %36 = call i32 (ptr, ...) @printf(ptr noundef @.str.47, ptr noundef %28, i32 noundef %29, ptr noundef %32, ptr noundef %35)
  br label %37

37:                                               ; preds = %27, %18
  call void @slurm_xfree(ptr noundef %8)
  %38 = getelementptr inbounds [128 x i8], ptr %9, i64 0, i64 0
  %39 = load ptr, ptr @stdin, align 8
  %40 = call ptr @fgets(ptr noundef %38, i32 noundef 128, ptr noundef %39)
  %41 = icmp eq ptr %40, null
  br i1 %41, label %42, label %43

42:                                               ; preds = %37
  br label %11, !llvm.loop !32

43:                                               ; preds = %37
  %44 = getelementptr inbounds [128 x i8], ptr %9, i64 0, i64 0
  %45 = load i8, ptr %44, align 16
  %46 = sext i8 %45 to i32
  %47 = icmp eq i32 %46, 121
  br i1 %47, label %53, label %48

48:                                               ; preds = %43
  %49 = getelementptr inbounds [128 x i8], ptr %9, i64 0, i64 0
  %50 = load i8, ptr %49, align 16
  %51 = sext i8 %50 to i32
  %52 = icmp eq i32 %51, 89
  br i1 %52, label %53, label %54

53:                                               ; preds = %48, %43
  store i32 1, ptr %4, align 4
  store i32 1, ptr %10, align 4
  br label %66

54:                                               ; preds = %48
  %55 = getelementptr inbounds [128 x i8], ptr %9, i64 0, i64 0
  %56 = load i8, ptr %55, align 16
  %57 = sext i8 %56 to i32
  %58 = icmp eq i32 %57, 110
  br i1 %58, label %64, label %59

59:                                               ; preds = %54
  %60 = getelementptr inbounds [128 x i8], ptr %9, i64 0, i64 0
  %61 = load i8, ptr %60, align 16
  %62 = sext i8 %61 to i32
  %63 = icmp eq i32 %62, 78
  br i1 %63, label %64, label %65

64:                                               ; preds = %59, %54
  store i32 0, ptr %4, align 4
  store i32 1, ptr %10, align 4
  br label %66

65:                                               ; preds = %59
  br label %11, !llvm.loop !32

66:                                               ; preds = %64, %53
  call void @llvm.lifetime.end.p0(i64 128, ptr %9) #9
  call void @llvm.lifetime.end.p0(i64 8, ptr %8) #9
  %67 = load i32, ptr %4, align 4
  ret i32 %67
}