; Function Attrs: nounwind uwtable
define internal fastcc range(i32 0, 2) i32 @_confirmation(ptr noundef readonly captures(none) %0, i32 noundef %1, i32 noundef %2) unnamed_addr #4 {
  %4 = alloca ptr, align 8
  %5 = alloca ptr, align 8
  %6 = alloca [128 x i8], align 16
  call void @llvm.lifetime.start.p0(i64 8, ptr nonnull %5) #12
  call void @llvm.lifetime.start.p0(i64 128, ptr nonnull %6) #12
  %or.cond.i = icmp ult i32 %2, -2
  %7 = getelementptr inbounds nuw i8, ptr %0, i64 64
  %8 = getelementptr inbounds nuw i8, ptr %0, i64 48
  %9 = getelementptr inbounds nuw i8, ptr %0, i64 52
  %10 = getelementptr inbounds nuw i8, ptr %0, i64 412
  %11 = icmp eq i32 %1, -5
  %12 = getelementptr inbounds nuw i8, ptr %0, i64 496
  %13 = getelementptr inbounds nuw i8, ptr %0, i64 568
  br i1 %or.cond.i, label %.split.us, label %.split

.split.us:                                        ; preds = %3
  br i1 %11, label %_build_jobid_str.exit.us.us, label %_build_jobid_str.exit.us

_build_jobid_str.exit.us.us:                      ; preds = %.split.us, %_build_jobid_str.exit.us.us.backedge
  call void @llvm.lifetime.start.p0(i64 8, ptr nonnull %4) #12
  store ptr null, ptr %4, align 8
  %14 = load i32, ptr %8, align 8
  call void (ptr, ptr, ...) @_xstrfmtcat(ptr noundef nonnull %4, ptr noundef nonnull @.str.14, i32 noundef %14, i32 noundef %2) #12
  %15 = load ptr, ptr %4, align 8
  call void @llvm.lifetime.end.p0(i64 8, ptr nonnull %4) #12
  store ptr %15, ptr %5, align 8
  %16 = load ptr, ptr %12, align 8
  %17 = load ptr, ptr %13, align 8
  %18 = call i32 (ptr, ...) @printf(ptr noundef nonnull dereferenceable(1) @.str.46, ptr noundef %15, ptr noundef %16, ptr noundef %17)
  call void @slurm_xfree(ptr noundef nonnull %5) #12
  %19 = load ptr, ptr @stdin, align 8
  %20 = call ptr @fgets(ptr noundef nonnull %6, i32 noundef 128, ptr noundef %19)
  %21 = icmp eq ptr %20, null
  br i1 %21, label %_build_jobid_str.exit.us.us.backedge, label %22

22:                                               ; preds = %_build_jobid_str.exit.us.us
  %23 = load i8, ptr %6, align 16
  %24 = and i8 %23, -33
  switch i8 %24, label %_build_jobid_str.exit.us.us.backedge [
    i8 89, label %.fold.split.loopexit32
    i8 78, label %.fold.split
  ]

_build_jobid_str.exit.us.us.backedge:             ; preds = %22, %_build_jobid_str.exit.us.us
  br label %_build_jobid_str.exit.us.us, !llvm.loop !32

_build_jobid_str.exit.us:                         ; preds = %.split.us, %_build_jobid_str.exit.us.backedge
  call void @llvm.lifetime.start.p0(i64 8, ptr nonnull %4) #12
  store ptr null, ptr %4, align 8
  %25 = load i32, ptr %8, align 8
  call void (ptr, ptr, ...) @_xstrfmtcat(ptr noundef nonnull %4, ptr noundef nonnull @.str.14, i32 noundef %25, i32 noundef %2) #12
  %26 = load ptr, ptr %4, align 8
  call void @llvm.lifetime.end.p0(i64 8, ptr nonnull %4) #12
  store ptr %26, ptr %5, align 8
  %27 = load ptr, ptr %12, align 8
  %28 = load ptr, ptr %13, align 8
  %29 = call i32 (ptr, ...) @printf(ptr noundef nonnull dereferenceable(1) @.str.47, ptr noundef %26, i32 noundef %1, ptr noundef %27, ptr noundef %28)
  call void @slurm_xfree(ptr noundef nonnull %5) #12
  %30 = load ptr, ptr @stdin, align 8
  %31 = call ptr @fgets(ptr noundef nonnull %6, i32 noundef 128, ptr noundef %30)
  %32 = icmp eq ptr %31, null
  br i1 %32, label %_build_jobid_str.exit.us.backedge, label %33

33:                                               ; preds = %_build_jobid_str.exit.us
  %34 = load i8, ptr %6, align 16
  %35 = and i8 %34, -33
  switch i8 %35, label %_build_jobid_str.exit.us.backedge [
    i8 89, label %.fold.split.loopexit33
    i8 78, label %.fold.split
  ]

_build_jobid_str.exit.us.backedge:                ; preds = %33, %_build_jobid_str.exit.us
  br label %_build_jobid_str.exit.us, !llvm.loop !32

.split:                                           ; preds = %3
  br i1 %11, label %.split.split.us, label %.split.split

.split.split.us:                                  ; preds = %.split, %.split.split.us.backedge
  call void @llvm.lifetime.start.p0(i64 8, ptr nonnull %4) #12
  store ptr null, ptr %4, align 8
  %36 = load ptr, ptr %7, align 8
  %.not.i.us = icmp eq ptr %36, null
  br i1 %.not.i.us, label %39, label %37

37:                                               ; preds = %.split.split.us
  %38 = load i32, ptr %8, align 8
  call void (ptr, ptr, ...) @_xstrfmtcat(ptr noundef nonnull %4, ptr noundef nonnull @.str.48, i32 noundef %38, ptr noundef nonnull %36) #12
  br label %_build_jobid_str.exit.us17

39:                                               ; preds = %.split.split.us
  %40 = load i32, ptr %9, align 4
  %.not13.i.us = icmp eq i32 %40, -2
  br i1 %.not13.i.us, label %43, label %41

41:                                               ; preds = %39
  %42 = load i32, ptr %8, align 8
  call void (ptr, ptr, ...) @_xstrfmtcat(ptr noundef nonnull %4, ptr noundef nonnull @.str.14, i32 noundef %42, i32 noundef %40) #12
  br label %_build_jobid_str.exit.us17

43:                                               ; preds = %39
  %44 = load i32, ptr %10, align 4
  call void (ptr, ptr, ...) @_xstrfmtcat(ptr noundef nonnull %4, ptr noundef nonnull @.str.15, i32 noundef %44) #12
  br label %_build_jobid_str.exit.us17

_build_jobid_str.exit.us17:                       ; preds = %43, %41, %37
  %45 = load ptr, ptr %4, align 8
  call void @llvm.lifetime.end.p0(i64 8, ptr nonnull %4) #12
  store ptr %45, ptr %5, align 8
  %46 = load ptr, ptr %12, align 8
  %47 = load ptr, ptr %13, align 8
  %48 = call i32 (ptr, ...) @printf(ptr noundef nonnull dereferenceable(1) @.str.46, ptr noundef %45, ptr noundef %46, ptr noundef %47)
  call void @slurm_xfree(ptr noundef nonnull %5) #12
  %49 = load ptr, ptr @stdin, align 8
  %50 = call ptr @fgets(ptr noundef nonnull %6, i32 noundef 128, ptr noundef %49)
  %51 = icmp eq ptr %50, null
  br i1 %51, label %.split.split.us.backedge, label %52

52:                                               ; preds = %_build_jobid_str.exit.us17
  %53 = load i8, ptr %6, align 16
  %54 = and i8 %53, -33
  switch i8 %54, label %.split.split.us.backedge [
    i8 89, label %.fold.split.loopexit34
    i8 78, label %.fold.split
  ]

.split.split.us.backedge:                         ; preds = %52, %_build_jobid_str.exit.us17
  br label %.split.split.us, !llvm.loop !32

.split.split:                                     ; preds = %.split, %.split.split.backedge
  call void @llvm.lifetime.start.p0(i64 8, ptr nonnull %4) #12
  store ptr null, ptr %4, align 8
  %55 = load ptr, ptr %7, align 8
  %.not.i = icmp eq ptr %55, null
  br i1 %.not.i, label %58, label %56

56:                                               ; preds = %.split.split
  %57 = load i32, ptr %8, align 8
  call void (ptr, ptr, ...) @_xstrfmtcat(ptr noundef nonnull %4, ptr noundef nonnull @.str.48, i32 noundef %57, ptr noundef nonnull %55) #12
  br label %_build_jobid_str.exit

58:                                               ; preds = %.split.split
  %59 = load i32, ptr %9, align 4
  %.not13.i = icmp eq i32 %59, -2
  br i1 %.not13.i, label %62, label %60

60:                                               ; preds = %58
  %61 = load i32, ptr %8, align 8
  call void (ptr, ptr, ...) @_xstrfmtcat(ptr noundef nonnull %4, ptr noundef nonnull @.str.14, i32 noundef %61, i32 noundef %59) #12
  br label %_build_jobid_str.exit

62:                                               ; preds = %58
  %63 = load i32, ptr %10, align 4
  call void (ptr, ptr, ...) @_xstrfmtcat(ptr noundef nonnull %4, ptr noundef nonnull @.str.15, i32 noundef %63) #12
  br label %_build_jobid_str.exit

_build_jobid_str.exit:                            ; preds = %56, %60, %62
  %64 = load ptr, ptr %4, align 8
  call void @llvm.lifetime.end.p0(i64 8, ptr nonnull %4) #12
  store ptr %64, ptr %5, align 8
  %65 = load ptr, ptr %12, align 8
  %66 = load ptr, ptr %13, align 8
  %67 = call i32 (ptr, ...) @printf(ptr noundef nonnull dereferenceable(1) @.str.47, ptr noundef %64, i32 noundef %1, ptr noundef %65, ptr noundef %66)
  call void @slurm_xfree(ptr noundef nonnull %5) #12
  %68 = load ptr, ptr @stdin, align 8
  %69 = call ptr @fgets(ptr noundef nonnull %6, i32 noundef 128, ptr noundef %68)
  %70 = icmp eq ptr %69, null
  br i1 %70, label %.split.split.backedge, label %71

.split.split.backedge:                            ; preds = %_build_jobid_str.exit, %71
  br label %.split.split, !llvm.loop !32

71:                                               ; preds = %_build_jobid_str.exit
  %72 = load i8, ptr %6, align 16
  %73 = and i8 %72, -33
  switch i8 %73, label %.split.split.backedge [
    i8 89, label %.fold.split.loopexit35
    i8 78, label %.fold.split
  ]

.fold.split.loopexit32:                           ; preds = %22
  br label %.fold.split

.fold.split.loopexit33:                           ; preds = %33
  br label %.fold.split

.fold.split.loopexit34:                           ; preds = %52
  br label %.fold.split

.fold.split.loopexit35:                           ; preds = %71
  br label %.fold.split

.fold.split:                                      ; preds = %71, %52, %33, %22, %.fold.split.loopexit35, %.fold.split.loopexit34, %.fold.split.loopexit33, %.fold.split.loopexit32
  %.0 = phi i32 [ 1, %.fold.split.loopexit32 ], [ 1, %.fold.split.loopexit33 ], [ 1, %.fold.split.loopexit34 ], [ 1, %.fold.split.loopexit35 ], [ 0, %22 ], [ 0, %33 ], [ 0, %52 ], [ 0, %71 ]
  call void @llvm.lifetime.end.p0(i64 128, ptr nonnull %6) #12
  call void @llvm.lifetime.end.p0(i64 8, ptr nonnull %5) #12
  ret i32 %.0
}